; Function Attrs: mustprogress uwtable
define void @_ZN7Imf_3_214RgbaOutputFile13setYCRoundingEjj(ptr nocapture noundef nonnull readonly align 8 dereferenceable(24) %this, i32 noundef %roundY, i32 noundef %roundC) local_unnamed_addr #3 align 2 personality ptr @__gxx_personality_v0 {
entry:
  %_toYca = getelementptr inbounds i8, ptr %this, i64 16
  %0 = load ptr, ptr %_toYca, align 8
  %tobool.not = icmp eq ptr %0, null
  br i1 %tobool.not, label %if.end, label %if.then

if.then:                                          ; preds = %entry
  %call1.i.i.i = tail call noundef i32 @pthread_mutex_lock(ptr noundef nonnull %0) #25
  %tobool.not.i.i = icmp eq i32 %call1.i.i.i, 0
  br i1 %tobool.not.i.i, label %_ZNSt10lock_guardISt5mutexEC2ERS0_.exit, label %if.then.i.i

if.then.i.i:                                      ; preds = %if.then
  tail call void @_ZSt20__throw_system_errori(i32 noundef %call1.i.i.i) #27
  unreachable

_ZNSt10lock_guardISt5mutexEC2ERS0_.exit:          ; preds = %if.then
  %1 = load ptr, ptr %_toYca, align 8
  %_roundY.i = getelementptr inbounds i8, ptr %1, i64 344
  store i32 %roundY, ptr %_roundY.i, align 8
  %_roundC.i = getelementptr inbounds i8, ptr %1, i64 348
  store i32 %roundC, ptr %_roundC.i, align 4
  %call1.i.i.i1 = tail call noundef i32 @pthread_mutex_unlock(ptr noundef nonnull %0) #25
  br label %if.end

if.end:                                           ; preds = %_ZNSt10lock_guardISt5mutexEC2ERS0_.exit, %entry
  ret void
}